; Function Attrs: mustprogress uwtable
define void @_ZN3zmq13raw_encoder_t17raw_message_readyEv(ptr nocapture noundef nonnull align 8 dereferenceable(72) %this) #0 align 2 {
entry:
  %_in_progress.i = getelementptr inbounds i8, ptr %this, i64 64
  %0 = load ptr, ptr %_in_progress.i, align 8
  %call2 = tail call noundef ptr @_ZN3zmq5msg_t4dataEv(ptr noundef nonnull align 8 dereferenceable(64) %0)
  %1 = load ptr, ptr %_in_progress.i, align 8
  %call4 = tail call noundef i64 @_ZNK3zmq5msg_t4sizeEv(ptr noundef nonnull align 8 dereferenceable(64) %1)
  %_write_pos.i = getelementptr inbounds i8, ptr %this, i64 8
  store ptr %call2, ptr %_write_pos.i, align 8
  %_to_write.i = getelementptr inbounds i8, ptr %this, i64 16
  store i64 %call4, ptr %_to_write.i, align 8
  %_next.i = getelementptr inbounds i8, ptr %this, i64 24
  store i64 ptrtoint (ptr @_ZN3zmq13raw_encoder_t17raw_message_readyEv to i64), ptr %_next.i, align 8
  %_next.repack1.i = getelementptr inbounds i8, ptr %this, i64 32
  store i64 0, ptr %_next.repack1.i, align 8
  %_new_msg_flag.i = getelementptr inbounds i8, ptr %this, i64 40
  store i8 1, ptr %_new_msg_flag.i, align 8
  ret void
}